target datalayout = "e-m:e-p270:32:32-p271:32:32-p272:64:64-i64:64-i128:128-f80:128-n8:16:32:64-S128"
target triple = "x86_64-pc-linux-gnu"

; Function Attrs: alwaysinline nounwind willreturn memory(none) uwtable
define internal zeroext i16 @av_bswap16(i16 noundef zeroext %0) #6 {
  %2 = alloca i16, align 2
  store i16 %0, ptr %2, align 2, !tbaa !49
  %3 = load i16, ptr %2, align 2, !tbaa !49
  %4 = zext i16 %3 to i32
  %5 = ashr i32 %4, 8
  %6 = load i16, ptr %2, align 2, !tbaa !49
  %7 = zext i16 %6 to i32
  %8 = shl i32 %7, 8
  %9 = or i32 %5, %8
  %10 = trunc i32 %9 to i16
  store i16 %10, ptr %2, align 2, !tbaa !49
  %11 = load i16, ptr %2, align 2, !tbaa !49
  ret i16 %11
}

; Function Attrs: alwaysinline nounwind willreturn memory(none) uwtable
define internal i32 @av_clip_uintp2_c(i32 noundef %0, i32 noundef %1) #6 {
  %3 = alloca i32, align 4
  %4 = alloca i32, align 4
  %5 = alloca i32, align 4
  store i32 %0, ptr %4, align 4, !tbaa !30
  store i32 %1, ptr %5, align 4, !tbaa !30
  %6 = load i32, ptr %4, align 4, !tbaa !30
  %7 = load i32, ptr %5, align 4, !tbaa !30
  %8 = shl i32 1, %7
  %9 = sub i32 %8, 1
  %10 = xor i32 %9, -1
  %11 = and i32 %6, %10
  %12 = icmp ne i32 %11, 0
  br i1 %12, label %13, label %21

13:                                               ; preds = %2
  %14 = load i32, ptr %4, align 4, !tbaa !30
  %15 = xor i32 %14, -1
  %16 = ashr i32 %15, 31
  %17 = load i32, ptr %5, align 4, !tbaa !30
  %18 = shl i32 1, %17
  %19 = sub i32 %18, 1
  %20 = and i32 %16, %19
  store i32 %20, ptr %3, align 4
  br label %23

21:                                               ; preds = %2
  %22 = load i32, ptr %4, align 4, !tbaa !30
  store i32 %22, ptr %3, align 4
  br label %23

23:                                               ; preds = %21, %13
  %24 = load i32, ptr %3, align 4
  ret i32 %24
}

; Function Attrs: nounwind uwtable
define internal void @yuv2p01xlX_c(ptr noundef %0, i32 noundef %1, ptr noundef %2, ptr noundef %3, i32 noundef %4, i32 noundef %5, i32 noundef %6, i32 noundef %7) #4 {
  %9 = alloca ptr, align 8
  %10 = alloca i32, align 4
  %11 = alloca ptr, align 8
  %12 = alloca ptr, align 8
  %13 = alloca i32, align 4
  %14 = alloca i32, align 4
  %15 = alloca i32, align 4
  %16 = alloca i32, align 4
  %17 = alloca i32, align 4
  %18 = alloca i32, align 4
  %19 = alloca i32, align 4
  %20 = alloca i32, align 4
  store ptr %0, ptr %9, align 8, !tbaa !45
  store i32 %1, ptr %10, align 4, !tbaa !30
  store ptr %2, ptr %11, align 8, !tbaa !47
  store ptr %3, ptr %12, align 8, !tbaa !45
  store i32 %4, ptr %13, align 4, !tbaa !30
  store i32 %5, ptr %14, align 4, !tbaa !30
  store i32 %6, ptr %15, align 4, !tbaa !30
  store i32 %7, ptr %16, align 4, !tbaa !30
  call void @llvm.lifetime.start.p0(i64 4, ptr %17) #8
  call void @llvm.lifetime.start.p0(i64 4, ptr %18) #8
  call void @llvm.lifetime.start.p0(i64 4, ptr %19) #8
  %21 = load i32, ptr %15, align 4, !tbaa !30
  %22 = sub nsw i32 27, %21
  store i32 %22, ptr %19, align 4, !tbaa !30
  store i32 0, ptr %17, align 4, !tbaa !30
  br label %23

23:                                               ; preds = %89, %8
  %24 = load i32, ptr %17, align 4, !tbaa !30
  %25 = load i32, ptr %13, align 4, !tbaa !30
  %26 = icmp slt i32 %24, %25
  br i1 %26, label %27, label %92

27:                                               ; preds = %23
  call void @llvm.lifetime.start.p0(i64 4, ptr %20) #8
  %28 = load i32, ptr %19, align 4, !tbaa !30
  %29 = sub nsw i32 %28, 1
  %30 = shl i32 1, %29
  store i32 %30, ptr %20, align 4, !tbaa !30
  store i32 0, ptr %18, align 4, !tbaa !30
  br label %31

31:                                               ; preds = %55, %27
  %32 = load i32, ptr %18, align 4, !tbaa !30
  %33 = load i32, ptr %10, align 4, !tbaa !30
  %34 = icmp slt i32 %32, %33
  br i1 %34, label %35, label %58

35:                                               ; preds = %31
  %36 = load ptr, ptr %11, align 8, !tbaa !47
  %37 = load i32, ptr %18, align 4, !tbaa !30
  %38 = sext i32 %37 to i64
  %39 = getelementptr inbounds ptr, ptr %36, i64 %38
  %40 = load ptr, ptr %39, align 8, !tbaa !45
  %41 = load i32, ptr %17, align 4, !tbaa !30
  %42 = sext i32 %41 to i64
  %43 = getelementptr inbounds i16, ptr %40, i64 %42
  %44 = load i16, ptr %43, align 2, !tbaa !49
  %45 = sext i16 %44 to i32
  %46 = load ptr, ptr %9, align 8, !tbaa !45
  %47 = load i32, ptr %18, align 4, !tbaa !30
  %48 = sext i32 %47 to i64
  %49 = getelementptr inbounds i16, ptr %46, i64 %48
  %50 = load i16, ptr %49, align 2, !tbaa !49
  %51 = sext i16 %50 to i32
  %52 = mul nsw i32 %45, %51
  %53 = load i32, ptr %20, align 4, !tbaa !30
  %54 = add nsw i32 %53, %52
  store i32 %54, ptr %20, align 4, !tbaa !30
  br label %55

55:                                               ; preds = %35
  %56 = load i32, ptr %18, align 4, !tbaa !30
  %57 = add nsw i32 %56, 1
  store i32 %57, ptr %18, align 4, !tbaa !30
  br label %31, !llvm.loop !107

58:                                               ; preds = %31
  %59 = load i32, ptr %14, align 4, !tbaa !30
  %60 = icmp ne i32 %59, 0
  br i1 %60, label %61, label %75

61:                                               ; preds = %58
  %62 = load i32, ptr %20, align 4, !tbaa !30
  %63 = load i32, ptr %19, align 4, !tbaa !30
  %64 = ashr i32 %62, %63
  %65 = load i32, ptr %15, align 4, !tbaa !30
  %66 = call i32 @av_clip_uintp2_c(i32 noundef %64, i32 noundef %65) #10
  %67 = load i32, ptr %16, align 4, !tbaa !30
  %68 = shl i32 %66, %67
  %69 = trunc i32 %68 to i16
  %70 = call zeroext i16 @av_bswap16(i16 noundef zeroext %69) #10
  %71 = load ptr, ptr %12, align 8, !tbaa !45
  %72 = load i32, ptr %17, align 4, !tbaa !30
  %73 = sext i32 %72 to i64
  %74 = getelementptr inbounds i16, ptr %71, i64 %73
  store i16 %70, ptr %74, align 1, !tbaa !51
  br label %88

75:                                               ; preds = %58
  %76 = load i32, ptr %20, align 4, !tbaa !30
  %77 = load i32, ptr %19, align 4, !tbaa !30
  %78 = ashr i32 %76, %77
  %79 = load i32, ptr %15, align 4, !tbaa !30
  %80 = call i32 @av_clip_uintp2_c(i32 noundef %78, i32 noundef %79) #10
  %81 = load i32, ptr %16, align 4, !tbaa !30
  %82 = shl i32 %80, %81
  %83 = trunc i32 %82 to i16
  %84 = load ptr, ptr %12, align 8, !tbaa !45
  %85 = load i32, ptr %17, align 4, !tbaa !30
  %86 = sext i32 %85 to i64
  %87 = getelementptr inbounds i16, ptr %84, i64 %86
  store i16 %83, ptr %87, align 1, !tbaa !51
  br label %88

88:                                               ; preds = %75, %61
  call void @llvm.lifetime.end.p0(i64 4, ptr %20) #8
  br label %89

89:                                               ; preds = %88
  %90 = load i32, ptr %17, align 4, !tbaa !30
  %91 = add nsw i32 %90, 1
  store i32 %91, ptr %17, align 4, !tbaa !30
  br label %23, !llvm.loop !108

92:                                               ; preds = %23
  call void @llvm.lifetime.end.p0(i64 4, ptr %19) #8
  call void @llvm.lifetime.end.p0(i64 4, ptr %18) #8
  call void @llvm.lifetime.end.p0(i64 4, ptr %17) #8
  ret void
}

; Function Attrs: nounwind uwtable
define internal void @yuv2p012lX_BE_c(ptr noundef %0, i32 noundef %1, ptr noundef %2, ptr noundef %3, i32 noundef %4, ptr noundef %5, i32 noundef %6) #4 {
  %8 = alloca ptr, align 8
  %9 = alloca i32, align 4
  %10 = alloca ptr, align 8
  %11 = alloca ptr, align 8
  %12 = alloca i32, align 4
  %13 = alloca ptr, align 8
  %14 = alloca i32, align 4
  store ptr %0, ptr %8, align 8, !tbaa !45
  store i32 %1, ptr %9, align 4, !tbaa !30
  store ptr %2, ptr %10, align 8, !tbaa !47
  store ptr %3, ptr %11, align 8, !tbaa !46
  store i32 %4, ptr %12, align 4, !tbaa !30
  store ptr %5, ptr %13, align 8, !tbaa !46
  store i32 %6, ptr %14, align 4, !tbaa !30
  %15 = load ptr, ptr %8, align 8, !tbaa !45
  %16 = load i32, ptr %9, align 4, !tbaa !30
  %17 = load ptr, ptr %10, align 8, !tbaa !47
  %18 = load ptr, ptr %11, align 8, !tbaa !46
  %19 = load i32, ptr %12, align 4, !tbaa !30
  call void @yuv2p01xlX_c(ptr noundef %15, i32 noundef %16, ptr noundef %17, ptr noundef %18, i32 noundef %19, i32 noundef 1, i32 noundef 12, i32 noundef 4)
  ret void
}